(dp1
S'output'
p2
S"<class 'gluon.contrib.simplejson.decoder.JSONDecodeError'> No JSON object could be decoded: line 1 column 0 (char 0)"
p3
sS'layer'
p4
S'C:\\Users\\sunlifeng\\Downloads\\web2py\\applications\\estore\\controllers/angularjs.py'
p5
sS'code'
p6
S'# coding: utf8\n\nimport gluon.contrib.simplejson\n\ndef index():\n    return dict(message="hello from angular")\n\ndef takeOrder():\n    new_recipe = gluon.contrib.simplejson.loads(request.body.read())\n\n    return new_recipe\n\ndef menu():\n    rows = db(db.product).select().as_list()\n\n    #return dict(product_list=gluon.contrib.simplejson.dumps(rows))\n    return to_json(rows)\n\ndef cat():\n    categories = db().select(db.product.category,distinct=True)\n    #return to_json(categories)\n    return dict(cat=categories)\n\ndef to_json(rows):\n    lista = list()\n    status=dict()\n    status["status"]="success"\n    status["is_modify"]=1\n    status["version"]="0"\n    #lista.append(status)\n    for row in rows:\n        arr = dict()\n        for k,v in row.items():\n            arr[k] = v\n        lista.append(arr)\n    status["data"]=gluon.contrib.simplejson.dumps(lista)\n    return dict(row_list=gluon.contrib.simplejson.dumps(status))\n\n    \nresponse._vars=response._caller(takeOrder)\n'
p7
sS'snapshot'
p8
(dp9
S'exception'
p10
(dp11
S'__module__'
p12
S"'gluon.contrib.simplejson.decoder'"
p13
sS'__getslice__'
p14
S"<method-wrapper '__getslice__' of JSONDecodeError object>"
p15
sS'__str__'
p16
S"<method-wrapper '__str__' of JSONDecodeError object>"
p17
sS'__reduce__'
p18
S'<built-in method __reduce__ of JSONDecodeError object>'
p19
sS'pos'
p20
S'0'
sS'endlineno'
p21
S'None'
p22
sS'__dict__'
p23
S"{'colno': 0, 'doc': 'cart=%5B%7B%22image%22%3A%22product.image.86c36d...%22%2C%22amount%22%3A1%2C%22userType%22%3A0%7D%5D', 'end': None, 'endcolno': None, 'endlineno': None, 'lineno': 1, 'msg': 'No JSON object could be decoded', 'pos': 0}"
p24
sS'__sizeof__'
p25
S'<built-in method __sizeof__ of JSONDecodeError object>'
p26
sS'__weakref__'
p27
S'None'
p28
sS'__init__'
p29
S"<bound method JSONDecodeError.__init__ of JSONDe...ct could be decoded: line 1 column 0 (char 0)',)>"
p30
sS'__setattr__'
p31
S"<method-wrapper '__setattr__' of JSONDecodeError object>"
p32
sS'__reduce_ex__'
p33
S'<built-in method __reduce_ex__ of JSONDecodeError object>'
p34
sS'end'
p35
S'None'
p36
sS'__new__'
p37
S'<built-in method __new__ of type object>'
p38
sS'__format__'
p39
S'<built-in method __format__ of JSONDecodeError object>'
p40
sS'__class__'
p41
S"<class 'gluon.contrib.simplejson.decoder.JSONDecodeError'>"
p42
sS'lineno'
p43
S'1'
sS'msg'
p44
S"'No JSON object could be decoded'"
p45
sS'__doc__'
p46
S"'Subclass of ValueError with the following additi...e column corresponding to end (may be None)\\n\\n    '"
p47
sS'__getitem__'
p48
S"<method-wrapper '__getitem__' of JSONDecodeError object>"
p49
sS'__setstate__'
p50
S'<built-in method __setstate__ of JSONDecodeError object>'
p51
sS'__getattribute__'
p52
S"<method-wrapper '__getattribute__' of JSONDecodeError object>"
p53
sS'args'
p54
S"('No JSON object could be decoded: line 1 column 0 (char 0)',)"
p55
sS'__subclasshook__'
p56
S'<built-in method __subclasshook__ of type object>'
p57
sS'colno'
p58
S'0'
sS'__unicode__'
p59
S'<built-in method __unicode__ of JSONDecodeError object>'
p60
sS'doc'
p61
S"'cart=%5B%7B%22image%22%3A%22product.image.86c36d...%22%2C%22amount%22%3A1%2C%22userType%22%3A0%7D%5D'"
p62
sS'endcolno'
p63
S'None'
p64
sS'__delattr__'
p65
S"<method-wrapper '__delattr__' of JSONDecodeError object>"
p66
sS'__repr__'
p67
S"<method-wrapper '__repr__' of JSONDecodeError object>"
p68
sS'__hash__'
p69
S"<method-wrapper '__hash__' of JSONDecodeError object>"
p70
ssS'evalue'
p71
S'No JSON object could be decoded: line 1 column 0 (char 0)'
p72
sS'request'
p73
cgluon.html
XML_unpickle
p74
(S's\xc6`\x00\x00<div><table><tr><td style="font-weight:bold;vertical-align:top;">ajax</td><td style="vertical-align:top;">:</td><td><div>False</div></td></tr><tr><td style="font-weight:bold;vertical-align:top;">application</td><td style="vertical-align:top;">:</td><td><div>estore</div></td></tr><tr><td style="font-weight:bold;vertical-align:top;">args</td><td style="vertical-align:top;">:</td><td><div><table></table></div></td></tr><tr><td style="font-weight:bold;vertical-align:top;">cid</td><td style="vertical-align:top;">:</td><td><div>None</div></td></tr><tr><td style="font-weight:bold;vertical-align:top;">client</td><td style="vertical-align:top;">:</td><td><div>127.0.0.1</div></td></tr><tr><td style="font-weight:bold;vertical-align:top;">controller</td><td style="vertical-align:top;">:</td><td><div>angularjs</div></td></tr><tr><td style="font-weight:bold;vertical-align:top;">cookies</td><td style="vertical-align:top;">:</td><td><div><table><tr><td style="font-weight:bold;vertical-align:top;">session_id_admin</td><td style="vertical-align:top;">:</td><td><div>127.0.0.1-09164b61-6b09-4e55-916b-853ae708c956<table><tr><td style="font-weight:bold;vertical-align:top;">comment</td><td style="vertical-align:top;">:</td><td><div></div></td></tr><tr><td style="font-weight:bold;vertical-align:top;">domain</td><td style="vertical-align:top;">:</td><td><div></div></td></tr><tr><td style="font-weight:bold;vertical-align:top;">expires</td><td style="vertical-align:top;">:</td><td><div></div></td></tr><tr><td style="font-weight:bold;vertical-align:top;">httponly</td><td style="vertical-align:top;">:</td><td><div></div></td></tr><tr><td style="font-weight:bold;vertical-align:top;">max-age</td><td style="vertical-align:top;">:</td><td><div></div></td></tr><tr><td style="font-weight:bold;vertical-align:top;">path</td><td style="vertical-align:top;">:</td><td><div></div></td></tr><tr><td style="font-weight:bold;vertical-align:top;">secure</td><td style="vertical-align:top;">:</td><td><div></div></td></tr><tr><td style="font-weight:bold;vertical-align:top;">version</td><td style="vertical-align:top;">:</td><td><div></div></td></tr></table></div></td></tr><tr><td style="font-weight:bold;vertical-align:top;">session_id_estore</td><td style="vertical-align:top;">:</td><td><div>127.0.0.1-89d7b03b-6a14-47ed-8468-595ad2526627<table><tr><td style="font-weight:bold;vertical-align:top;">comment</td><td style="vertical-align:top;">:</td><td><div></div></td></tr><tr><td style="font-weight:bold;vertical-align:top;">domain</td><td style="vertical-align:top;">:</td><td><div></div></td></tr><tr><td style="font-weight:bold;vertical-align:top;">expires</td><td style="vertical-align:top;">:</td><td><div></div></td></tr><tr><td style="font-weight:bold;vertical-align:top;">httponly</td><td style="vertical-align:top;">:</td><td><div></div></td></tr><tr><td style="font-weight:bold;vertical-align:top;">max-age</td><td style="vertical-align:top;">:</td><td><div></div></td></tr><tr><td style="font-weight:bold;vertical-align:top;">path</td><td style="vertical-align:top;">:</td><td><div></div></td></tr><tr><td style="font-weight:bold;vertical-align:top;">secure</td><td style="vertical-align:top;">:</td><td><div></div></td></tr><tr><td style="font-weight:bold;vertical-align:top;">version</td><td style="vertical-align:top;">:</td><td><div></div></td></tr></table></div></td></tr><tr><td style="font-weight:bold;vertical-align:top;">session_id_welcome</td><td style="vertical-align:top;">:</td><td><div>127.0.0.1-ae6f5b25-c9b5-41bf-bf06-23128a78267f<table><tr><td style="font-weight:bold;vertical-align:top;">comment</td><td style="vertical-align:top;">:</td><td><div></div></td></tr><tr><td style="font-weight:bold;vertical-align:top;">domain</td><td style="vertical-align:top;">:</td><td><div></div></td></tr><tr><td style="font-weight:bold;vertical-align:top;">expires</td><td style="vertical-align:top;">:</td><td><div></div></td></tr><tr><td style="font-weight:bold;vertical-align:top;">httponly</td><td style="vertical-align:top;">:</td><td><div></div></td></tr><tr><td style="font-weight:bold;vertical-align:top;">max-age</td><td style="vertical-align:top;">:</td><td><div></div></td></tr><tr><td style="font-weight:bold;vertical-align:top;">path</td><td style="vertical-align:top;">:</td><td><div></div></td></tr><tr><td style="font-weight:bold;vertical-align:top;">secure</td><td style="vertical-align:top;">:</td><td><div></div></td></tr><tr><td style="font-weight:bold;vertical-align:top;">version</td><td style="vertical-align:top;">:</td><td><div></div></td></tr></table></div></td></tr></table></div></td></tr><tr><td style="font-weight:bold;vertical-align:top;">env</td><td style="vertical-align:top;">:</td><td><div><table><tr><td style="font-weight:bold;vertical-align:top;">CONTENT_LENGTH</td><td style="vertical-align:top;">:</td><td><div>394</div></td></tr><tr><td style="font-weight:bold;vertical-align:top;">CONTENT_TYPE</td><td style="vertical-align:top;">:</td><td><div>application/x-www-form-urlencoded; charset=UTF-8</div></td></tr><tr><td style="font-weight:bold;vertical-align:top;">HTTP_ACCEPT</td><td style="vertical-align:top;">:</td><td><div>application/json, text/plain, */*</div></td></tr><tr><td style="font-weight:bold;vertical-align:top;">HTTP_ACCEPT_ENCODING</td><td style="vertical-align:top;">:</td><td><div>gzip, deflate</div></td></tr><tr><td style="font-weight:bold;vertical-align:top;">HTTP_ACCEPT_LANGUAGE</td><td style="vertical-align:top;">:</td><td><div>zh-Hans-CN,zh-Hans;q=0.5</div></td></tr><tr><td style="font-weight:bold;vertical-align:top;">HTTP_CACHE_CONTROL</td><td style="vertical-align:top;">:</td><td><div>no-cache</div></td></tr><tr><td style="font-weight:bold;vertical-align:top;">HTTP_CONNECTION</td><td style="vertical-align:top;">:</td><td><div>Keep-Alive</div></td></tr><tr><td style="font-weight:bold;vertical-align:top;">HTTP_CONTENT_LENGTH</td><td style="vertical-align:top;">:</td><td><div>394</div></td></tr><tr><td style="font-weight:bold;vertical-align:top;">HTTP_CONTENT_TYPE</td><td style="vertical-align:top;">:</td><td><div>application/x-www-form-urlencoded; charset=UTF-8</div></td></tr><tr><td style="font-weight:bold;vertical-align:top;">HTTP_COOKIE</td><td style="vertical-align:top;">:</td><td><div>session_id_welcome=127.0.0.1-ae6f5b25-c9b5-41bf-bf06-23128a78267f; session_id_admin=127.0.0.1-09164b61-6b09-4e55-916b-853ae708c956; session_id_estore=127.0.0.1-89d7b03b-6a14-47ed-8468-595ad2526627</div></td></tr><tr><td style="font-weight:bold;vertical-align:top;">HTTP_HOST</td><td style="vertical-align:top;">:</td><td><div>127.0.0.1:8000</div></td></tr><tr><td style="font-weight:bold;vertical-align:top;">HTTP_REFERER</td><td style="vertical-align:top;">:</td><td><div>http://127.0.0.1:8000/estore/angularjs/index</div></td></tr><tr><td style="font-weight:bold;vertical-align:top;">HTTP_USER_AGENT</td><td style="vertical-align:top;">:</td><td><div>Mozilla/5.0 (Windows NT 10.0; Win64; x64) AppleWebKit/537.36 (KHTML, like Gecko) Chrome/51.0.2704.79 Safari/537.36 Edge/14.14393</div></td></tr><tr><td style="font-weight:bold;vertical-align:top;">PATH_INFO</td><td style="vertical-align:top;">:</td><td><div>/estore/angularjs/takeOrder.json</div></td></tr><tr><td style="font-weight:bold;vertical-align:top;">QUERY_STRING</td><td style="vertical-align:top;">:</td><td><div></div></td></tr><tr><td style="font-weight:bold;vertical-align:top;">REMOTE_ADDR</td><td style="vertical-align:top;">:</td><td><div>127.0.0.1</div></td></tr><tr><td style="font-weight:bold;vertical-align:top;">REMOTE_PORT</td><td style="vertical-align:top;">:</td><td><div>57076</div></td></tr><tr><td style="font-weight:bold;vertical-align:top;">REQUEST_METHOD</td><td style="vertical-align:top;">:</td><td><div>POST</div></td></tr><tr><td style="font-weight:bold;vertical-align:top;">SCRIPT_NAME</td><td style="vertical-align:top;">:</td><td><div></div></td></tr><tr><td style="font-weight:bold;vertical-align:top;">SERVER_NAME</td><td style="vertical-align:top;">:</td><td><div>sunlifeng-PC</div></td></tr><tr><td style="font-weight:bold;vertical-align:top;">SERVER_PORT</td><td style="vertical-align:top;">:</td><td><div>8000</div></td></tr><tr><td style="font-weight:bold;vertical-align:top;">SERVER_PROTOCOL</td><td style="vertical-align:top;">:</td><td><div>HTTP/1.1</div></td></tr><tr><td style="font-weight:bold;vertical-align:top;">SERVER_SOFTWARE</td><td style="vertical-align:top;">:</td><td><div>Rocket 1.2.6</div></td></tr><tr><td style="font-weight:bold;vertical-align:top;">app_folders</td><td style="vertical-align:top;">:</td><td><div>set([&#x27;C:\\\\Users\\\\sunlifeng\\\\Downloads\\\\web2py\\\\applications\\\\welcome\\\\&#x27;, &#x27;C:\\\\Users\\\\sunlifeng\\\\Downloads\\\\web2py\\\\applications\\\\estore\\\\&#x27;, &#x27;C:\\\\Users\\\\sunlifeng\\\\Downloads\\\\web2py\\\\applications\\\\admin\\\\&#x27;])</div></td></tr><tr><td style="font-weight:bold;vertical-align:top;">applications_parent</td><td style="vertical-align:top;">:</td><td><div>C:\\Users\\sunlifeng\\Downloads\\web2py</div></td></tr><tr><td style="font-weight:bold;vertical-align:top;">cmd_args</td><td style="vertical-align:top;">:</td><td><div><table></table></div></td></tr><tr><td style="font-weight:bold;vertical-align:top;">cmd_options</td><td style="vertical-align:top;">:</td><td><div>&lt;Values at 0x31db670: {&#x27;verbose&#x27;: False, &#x27;ip&#x27;: &#x27;127.0.0.1&#x27;, &#x27;debuglevel&#x27;: 30, &#x27;with_scheduler&#x27;: False, &#x27;shutdown_timeout&#x27;: 5, &#x27;taskbar&#x27;: False, &#x27;with_coverage&#x27;: False, &#x27;pid_filename&#x27;: &#x27;httpserver.pid&#x27;, &#x27;maxthreads&#x27;: None, &#x27;softcron&#x27;: False, &#x27;server_name&#x27;: &#x27;sunlifeng-PC&#x27;, &#x27;bpython&#x27;: False, &#x27;nogui&#x27;: False, &#x27;port&#x27;: 8000, &#x27;print_errors&#x27;: False, &#x27;extcron&#x27;: False, &#x27;runcron&#x27;: False, &#x27;run_system_tests&#x27;: False, &#x27;test&#x27;: None, &#x27;folder&#x27;: &#x27;C:\\\\Users\\\\sunlifeng\\\\Downloads\\\\web2py&#x27;, &#x27;config&#x27;: &#x27;&#x27;, &#x27;minthreads&#x27;: None, &#x27;shell&#x27;: None, &#x27;run&#x27;: &#x27;&#x27;, &#x27;log_filename&#x27;: &#x27;httpserver.log&#x27;, &#x27;profiler_dir&#x27;: None, &#x27;args&#x27;: [&#x27;&#x27;], &#x27;socket_timeout&#x27;: 5, &#x27;ssl_ca_certificate&#x27;: None, &#x27;scheduler&#x27;: None, &#x27;interfaces&#x27;: None, &#x27;ssl_private_key&#x27;: &#x27;&#x27;, &#x27;gae&#x27;: None, &#x27;password&#x27;: &#x27;******&#x27;, &#x27;request_queue_size&#x27;: 5, &#x27;ssl_certificate&#x27;: &#x27;&#x27;, &#x27;cronjob&#x27;: False, &#x27;numthreads&#x27;: None, &#x27;quiet&#x27;: False, &#x27;import_models&#x27;: False, &#x27;timeout&#x27;: 10, &#x27;plain&#x27;: False, &#x27;nobanner&#x27;: False}&gt;</div></td></tr><tr><td style="font-weight:bold;vertical-align:top;">content_length</td><td style="vertical-align:top;">:</td><td><div>394</div></td></tr><tr><td style="font-weight:bold;vertical-align:top;">content_type</td><td style="vertical-align:top;">:</td><td><div>application/x-www-form-urlencoded; charset=UTF-8</div></td></tr><tr><td style="font-weight:bold;vertical-align:top;">db_sessions</td><td style="vertical-align:top;">:</td><td><div>set([])</div></td></tr><tr><td style="font-weight:bold;vertical-align:top;">debugging</td><td style="vertical-align:top;">:</td><td><div>False</div></td></tr><tr><td style="font-weight:bold;vertical-align:top;">gluon_parent</td><td style="vertical-align:top;">:</td><td><div>C:\\Users\\sunlifeng\\Downloads\\web2py</div></td></tr><tr><td style="font-weight:bold;vertical-align:top;">http_accept</td><td style="vertical-align:top;">:</td><td><div>application/json, text/plain, */*</div></td></tr><tr><td style="font-weight:bold;vertical-align:top;">http_accept_encoding</td><td style="vertical-align:top;">:</td><td><div>gzip, deflate</div></td></tr><tr><td style="font-weight:bold;vertical-align:top;">http_accept_language</td><td style="vertical-align:top;">:</td><td><div>zh-Hans-CN,zh-Hans;q=0.5</div></td></tr><tr><td style="font-weight:bold;vertical-align:top;">http_cache_control</td><td style="vertical-align:top;">:</td><td><div>no-cache</div></td></tr><tr><td style="font-weight:bold;vertical-align:top;">http_connection</td><td style="vertical-align:top;">:</td><td><div>Keep-Alive</div></td></tr><tr><td style="font-weight:bold;vertical-align:top;">http_content_length</td><td style="vertical-align:top;">:</td><td><div>394</div></td></tr><tr><td style="font-weight:bold;vertical-align:top;">http_content_type</td><td style="vertical-align:top;">:</td><td><div>application/x-www-form-urlencoded; charset=UTF-8</div></td></tr><tr><td style="font-weight:bold;vertical-align:top;">http_cookie</td><td style="vertical-align:top;">:</td><td><div>session_id_welcome=127.0.0.1-ae6f5b25-c9b5-41bf-bf06-23128a78267f; session_id_admin=127.0.0.1-09164b61-6b09-4e55-916b-853ae708c956; session_id_estore=127.0.0.1-89d7b03b-6a14-47ed-8468-595ad2526627</div></td></tr><tr><td style="font-weight:bold;vertical-align:top;">http_host</td><td style="vertical-align:top;">:</td><td><div>127.0.0.1:8000</div></td></tr><tr><td style="font-weight:bold;vertical-align:top;">http_referer</td><td style="vertical-align:top;">:</td><td><div>http://127.0.0.1:8000/estore/angularjs/index</div></td></tr><tr><td style="font-weight:bold;vertical-align:top;">http_user_agent</td><td style="vertical-align:top;">:</td><td><div>Mozilla/5.0 (Windows NT 10.0; Win64; x64) AppleWebKit/537.36 (KHTML, like Gecko) Chrome/51.0.2704.79 Safari/537.36 Edge/14.14393</div></td></tr><tr><td style="font-weight:bold;vertical-align:top;">is_jython</td><td style="vertical-align:top;">:</td><td><div>False</div></td></tr><tr><td style="font-weight:bold;vertical-align:top;">is_pypy</td><td style="vertical-align:top;">:</td><td><div>False</div></td></tr><tr><td style="font-weight:bold;vertical-align:top;">is_source</td><td style="vertical-align:top;">:</td><td><div>False</div></td></tr><tr><td style="font-weight:bold;vertical-align:top;">local_hosts</td><td style="vertical-align:top;">:</td><td><div><table><tr><td><div>sunlifeng-PC</div></td></tr><tr><td><div>::1</div></td></tr><tr><td><div>::ffff:127.0.0.1</div></td></tr><tr><td><div>127.0.0.1</div></td></tr></table></div></td></tr><tr><td style="font-weight:bold;vertical-align:top;">path_info</td><td style="vertical-align:top;">:</td><td><div>/estore/angularjs/takeOrder.json</div></td></tr><tr><td style="font-weight:bold;vertical-align:top;">query_string</td><td style="vertical-align:top;">:</td><td><div></div></td></tr><tr><td style="font-weight:bold;vertical-align:top;">remote_addr</td><td style="vertical-align:top;">:</td><td><div>127.0.0.1</div></td></tr><tr><td style="font-weight:bold;vertical-align:top;">remote_port</td><td style="vertical-align:top;">:</td><td><div>57076</div></td></tr><tr><td style="font-weight:bold;vertical-align:top;">request_method</td><td style="vertical-align:top;">:</td><td><div>POST</div></td></tr><tr><td style="font-weight:bold;vertical-align:top;">request_uri</td><td style="vertical-align:top;">:</td><td><div>/estore/angularjs/takeOrder.json</div></td></tr><tr><td style="font-weight:bold;vertical-align:top;">script_name</td><td style="vertical-align:top;">:</td><td><div></div></td></tr><tr><td style="font-weight:bold;vertical-align:top;">server_name</td><td style="vertical-align:top;">:</td><td><div>sunlifeng-PC</div></td></tr><tr><td style="font-weight:bold;vertical-align:top;">server_port</td><td style="vertical-align:top;">:</td><td><div>8000</div></td></tr><tr><td style="font-weight:bold;vertical-align:top;">server_protocol</td><td style="vertical-align:top;">:</td><td><div>HTTP/1.1</div></td></tr><tr><td style="font-weight:bold;vertical-align:top;">server_software</td><td style="vertical-align:top;">:</td><td><div>Rocket 1.2.6</div></td></tr><tr><td style="font-weight:bold;vertical-align:top;">web2py_path</td><td style="vertical-align:top;">:</td><td><div>C:\\Users\\sunlifeng\\Downloads\\web2py</div></td></tr><tr><td style="font-weight:bold;vertical-align:top;">web2py_version</td><td style="vertical-align:top;">:</td><td><div>2.14.6-stable+timestamp.2016.05.10.00.21.47</div></td></tr><tr><td style="font-weight:bold;vertical-align:top;">wsgi.errors</td><td style="vertical-align:top;">:</td><td><div>&lt;open file &#x27;&lt;stderr&gt;&#x27;, mode &#x27;w&#x27; at 0x0220D0D0&gt;</div></td></tr><tr><td style="font-weight:bold;vertical-align:top;">wsgi.file_wrapper</td><td style="vertical-align:top;">:</td><td><div>&lt;class wsgiref.util.FileWrapper at 0x031151F0&gt;</div></td></tr><tr><td style="font-weight:bold;vertical-align:top;">wsgi.input</td><td style="vertical-align:top;">:</td><td><div>&lt;socket._fileobject object at 0x0CFEA5B0&gt;</div></td></tr><tr><td style="font-weight:bold;vertical-align:top;">wsgi.multiprocess</td><td style="vertical-align:top;">:</td><td><div>False</div></td></tr><tr><td style="font-weight:bold;vertical-align:top;">wsgi.multithread</td><td style="vertical-align:top;">:</td><td><div>True</div></td></tr><tr><td style="font-weight:bold;vertical-align:top;">wsgi.run_once</td><td style="vertical-align:top;">:</td><td><div>False</div></td></tr><tr><td style="font-weight:bold;vertical-align:top;">wsgi.url_scheme</td><td style="vertical-align:top;">:</td><td><div>http</div></td></tr><tr><td style="font-weight:bold;vertical-align:top;">wsgi.version</td><td style="vertical-align:top;">:</td><td><div><table><tr><td><div>1</div></td></tr><tr><td><div>0</div></td></tr></table></div></td></tr><tr><td style="font-weight:bold;vertical-align:top;">wsgi_errors</td><td style="vertical-align:top;">:</td><td><div>&lt;open file &#x27;&lt;stderr&gt;&#x27;, mode &#x27;w&#x27; at 0x0220D0D0&gt;</div></td></tr><tr><td style="font-weight:bold;vertical-align:top;">wsgi_file_wrapper</td><td style="vertical-align:top;">:</td><td><div>&lt;class wsgiref.util.FileWrapper at 0x031151F0&gt;</div></td></tr><tr><td style="font-weight:bold;vertical-align:top;">wsgi_input</td><td style="vertical-align:top;">:</td><td><div>&lt;socket._fileobject object at 0x0CFEA5B0&gt;</div></td></tr><tr><td style="font-weight:bold;vertical-align:top;">wsgi_multiprocess</td><td style="vertical-align:top;">:</td><td><div>False</div></td></tr><tr><td style="font-weight:bold;vertical-align:top;">wsgi_multithread</td><td style="vertical-align:top;">:</td><td><div>True</div></td></tr><tr><td style="font-weight:bold;vertical-align:top;">wsgi_run_once</td><td style="vertical-align:top;">:</td><td><div>False</div></td></tr><tr><td style="font-weight:bold;vertical-align:top;">wsgi_url_scheme</td><td style="vertical-align:top;">:</td><td><div>http</div></td></tr><tr><td style="font-weight:bold;vertical-align:top;">wsgi_version</td><td style="vertical-align:top;">:</td><td><div><table><tr><td><div>1</div></td></tr><tr><td><div>0</div></td></tr></table></div></td></tr></table></div></td></tr><tr><td style="font-weight:bold;vertical-align:top;">extension</td><td style="vertical-align:top;">:</td><td><div>json</div></td></tr><tr><td style="font-weight:bold;vertical-align:top;">folder</td><td style="vertical-align:top;">:</td><td><div>C:\\Users\\sunlifeng\\Downloads\\web2py\\applications\\estore\\</div></td></tr><tr><td style="font-weight:bold;vertical-align:top;">function</td><td style="vertical-align:top;">:</td><td><div>takeOrder</div></td></tr><tr><td style="font-weight:bold;vertical-align:top;">global_settings</td><td style="vertical-align:top;">:</td><td><div><table><tr><td style="font-weight:bold;vertical-align:top;">app_folders</td><td style="vertical-align:top;">:</td><td><div>set([&#x27;C:\\\\Users\\\\sunlifeng\\\\Downloads\\\\web2py\\\\applications\\\\welcome\\\\&#x27;, &#x27;C:\\\\Users\\\\sunlifeng\\\\Downloads\\\\web2py\\\\applications\\\\estore\\\\&#x27;, &#x27;C:\\\\Users\\\\sunlifeng\\\\Downloads\\\\web2py\\\\applications\\\\admin\\\\&#x27;])</div></td></tr><tr><td style="font-weight:bold;vertical-align:top;">applications_parent</td><td style="vertical-align:top;">:</td><td><div>C:\\Users\\sunlifeng\\Downloads\\web2py</div></td></tr><tr><td style="font-weight:bold;vertical-align:top;">cmd_args</td><td style="vertical-align:top;">:</td><td><div><table></table></div></td></tr><tr><td style="font-weight:bold;vertical-align:top;">cmd_options</td><td style="vertical-align:top;">:</td><td><div>&lt;Values at 0x31db670: {&#x27;verbose&#x27;: False, &#x27;ip&#x27;: &#x27;127.0.0.1&#x27;, &#x27;debuglevel&#x27;: 30, &#x27;with_scheduler&#x27;: False, &#x27;shutdown_timeout&#x27;: 5, &#x27;taskbar&#x27;: False, &#x27;with_coverage&#x27;: False, &#x27;pid_filename&#x27;: &#x27;httpserver.pid&#x27;, &#x27;maxthreads&#x27;: None, &#x27;softcron&#x27;: False, &#x27;server_name&#x27;: &#x27;sunlifeng-PC&#x27;, &#x27;bpython&#x27;: False, &#x27;nogui&#x27;: False, &#x27;port&#x27;: 8000, &#x27;print_errors&#x27;: False, &#x27;extcron&#x27;: False, &#x27;runcron&#x27;: False, &#x27;run_system_tests&#x27;: False, &#x27;test&#x27;: None, &#x27;folder&#x27;: &#x27;C:\\\\Users\\\\sunlifeng\\\\Downloads\\\\web2py&#x27;, &#x27;config&#x27;: &#x27;&#x27;, &#x27;minthreads&#x27;: None, &#x27;shell&#x27;: None, &#x27;run&#x27;: &#x27;&#x27;, &#x27;log_filename&#x27;: &#x27;httpserver.log&#x27;, &#x27;profiler_dir&#x27;: None, &#x27;args&#x27;: [&#x27;&#x27;], &#x27;socket_timeout&#x27;: 5, &#x27;ssl_ca_certificate&#x27;: None, &#x27;scheduler&#x27;: None, &#x27;interfaces&#x27;: None, &#x27;ssl_private_key&#x27;: &#x27;&#x27;, &#x27;gae&#x27;: None, &#x27;password&#x27;: &#x27;******&#x27;, &#x27;request_queue_size&#x27;: 5, &#x27;ssl_certificate&#x27;: &#x27;&#x27;, &#x27;cronjob&#x27;: False, &#x27;numthreads&#x27;: None, &#x27;quiet&#x27;: False, &#x27;import_models&#x27;: False, &#x27;timeout&#x27;: 10, &#x27;plain&#x27;: False, &#x27;nobanner&#x27;: False}&gt;</div></td></tr><tr><td style="font-weight:bold;vertical-align:top;">db_sessions</td><td style="vertical-align:top;">:</td><td><div>set([])</div></td></tr><tr><td style="font-weight:bold;vertical-align:top;">debugging</td><td style="vertical-align:top;">:</td><td><div>False</div></td></tr><tr><td style="font-weight:bold;vertical-align:top;">gluon_parent</td><td style="vertical-align:top;">:</td><td><div>C:\\Users\\sunlifeng\\Downloads\\web2py</div></td></tr><tr><td style="font-weight:bold;vertical-align:top;">is_jython</td><td style="vertical-align:top;">:</td><td><div>False</div></td></tr><tr><td style="font-weight:bold;vertical-align:top;">is_pypy</td><td style="vertical-align:top;">:</td><td><div>False</div></td></tr><tr><td style="font-weight:bold;vertical-align:top;">is_source</td><td style="vertical-align:top;">:</td><td><div>False</div></td></tr><tr><td style="font-weight:bold;vertical-align:top;">local_hosts</td><td style="vertical-align:top;">:</td><td><div><table><tr><td><div>sunlifeng-PC</div></td></tr><tr><td><div>::1</div></td></tr><tr><td><div>::ffff:127.0.0.1</div></td></tr><tr><td><div>127.0.0.1</div></td></tr></table></div></td></tr><tr><td style="font-weight:bold;vertical-align:top;">web2py_version</td><td style="vertical-align:top;">:</td><td><div>2.14.6-stable+timestamp.2016.05.10.00.21.47</div></td></tr></table></div></td></tr><tr><td style="font-weight:bold;vertical-align:top;">is_https</td><td style="vertical-align:top;">:</td><td><div>False</div></td></tr><tr><td style="font-weight:bold;vertical-align:top;">is_local</td><td style="vertical-align:top;">:</td><td><div>True</div></td></tr><tr><td style="font-weight:bold;vertical-align:top;">is_restful</td><td style="vertical-align:top;">:</td><td><div>False</div></td></tr><tr><td style="font-weight:bold;vertical-align:top;">is_scheduler</td><td style="vertical-align:top;">:</td><td><div>False</div></td></tr><tr><td style="font-weight:bold;vertical-align:top;">is_shell</td><td style="vertical-align:top;">:</td><td><div>False</div></td></tr><tr><td style="font-weight:bold;vertical-align:top;">now</td><td style="vertical-align:top;">:</td><td><div>datetime.datetime(2017, 5, 12, 21, 42, 43, 553000)</div></td></tr><tr><td style="font-weight:bold;vertical-align:top;">raw_args</td><td style="vertical-align:top;">:</td><td><div></div></td></tr><tr><td style="font-weight:bold;vertical-align:top;">raw_extension</td><td style="vertical-align:top;">:</td><td><div>json</div></td></tr><tr><td style="font-weight:bold;vertical-align:top;">url</td><td style="vertical-align:top;">:</td><td><div>/estore/angularjs/takeOrder.json</div></td></tr><tr><td style="font-weight:bold;vertical-align:top;">utcnow</td><td style="vertical-align:top;">:</td><td><div>datetime.datetime(2017, 5, 12, 13, 42, 43, 553000)</div></td></tr><tr><td style="font-weight:bold;vertical-align:top;">wsgi</td><td style="vertical-align:top;">:</td><td><div>&lt;gluon.main.LazyWSGI object at 0x0CFE0ED0&gt;</div></td></tr></table></div>'
tRp75
sS'frames'
p76
(lp77
(dp78
S'file'
p79
S'C:\\Users\\sunlifeng\\Downloads\\web2py\\gluon\\restricted.py'
p80
sS'dump'
p81
(dp82
S'environment'
p83
S"{'A': <class 'gluon.html.A'>, 'ANY_OF': <class 'gluon.validators.ANY_OF'>, 'ASSIGNJS': <function ASSIGNJS>, 'Auth': <class 'gluon.tools.Auth'>, 'B': <class 'gluon.html.B'>, 'BEAUTIFY': <class 'gluon.html.BEAUTIFY'>, 'BODY': <class 'gluon.html.BODY'>, 'BR': <class 'gluon.html.BR'>, 'BUTTON': <class 'gluon.html.BUTTON'>, 'CAT': <class 'gluon.html.CAT'>, ...}"
p84
sS'ccode'
p85
S'<code object <module> at 0D0BA068, file "C:\\User...cations\\estore\\controllers/angularjs.py", line 3>'
p86
ssS'lnum'
p87
I227
sS'lines'
p88
(dp89
I224
S'            ccode = code'
p90
sI225
S'        else:'
p91
sI226
S'            ccode = compile2(code, layer)'
p92
sI227
S'        exec ccode in environment'
p93
sI228
S'    except HTTP:'
p94
sI229
S'        raise'
p95
sI230
S'    except RestrictedError:'
p96
sI231
S'        # do not encapsulate (obfuscate) the original RestrictedError'
p97
sI222
S'    try:'
p98
sI223
S'        if isinstance(code, types.CodeType):'
p99
ssS'call'
p100
S"(code='# coding: utf8\\n\\nimport gluon.contrib.simplejson\\n...\\n    \\nresponse._vars=response._caller(takeOrder)\\n', environment={'A': <class 'gluon.html.A'>, 'ANY_OF': <class 'gluon.validators.ANY_OF'>, 'ASSIGNJS': <function ASSIGNJS>, 'Auth': <class 'gluon.tools.Auth'>, 'B': <class 'gluon.html.B'>, 'BEAUTIFY': <class 'gluon.html.BEAUTIFY'>, 'BODY': <class 'gluon.html.BODY'>, 'BR': <class 'gluon.html.BR'>, 'BUTTON': <class 'gluon.html.BUTTON'>, 'CAT': <class 'gluon.html.CAT'>, ...}, layer=r'C:\\Users\\sunlifeng\\Downloads\\web2py\\applications\\estore\\controllers/angularjs.py')"
p101
sS'func'
p102
S'restricted'
p103
sa(dp104
g79
S'C:\\Users\\sunlifeng\\Downloads\\web2py\\applications\\estore\\controllers\\angularjs.py'
p105
sg81
(dp106
sg87
I40
sg88
(dp107
I32
S'        arr = dict()'
p108
sI33
S'        for k,v in row.items():'
p109
sI34
S'            arr[k] = v'
p110
sI35
S'        lista.append(arr)'
p111
sI36
S'    status["data"]=gluon.contrib.simplejson.dumps(lista)'
p112
sI37
S'    return dict(row_list=gluon.contrib.simplejson.dumps(status))'
p113
sI38
S''
sI39
S''
sI30
S'    #lista.append(status)'
p114
sI31
S'    for row in rows:'
p115
ssg100
S'()'
p116
sg102
S'<module>'
p117
sa(dp118
g79
S'C:\\Users\\sunlifeng\\Downloads\\web2py\\gluon\\globals.py'
p119
sg81
(dp120
S'self'
p121
S'undefined'
p122
sS'f'
S'<function takeOrder>'
p123
ssg87
I417
sg88
(dp124
I416
S'        self._vars = None'
p125
sI417
S'        self._caller = lambda f: f()'
p126
sI418
S'        self._view_environment = None'
p127
sI419
S'        self._custom_commit = None'
p128
sI420
S'        self._custom_rollback = None'
p129
sI421
S"        self.generic_patterns = ['*']"
p130
sI412
S"        self.flash = ''            # used by the default view layout"
p131
sI413
S'        self.meta = Storage()      # used by web2py_ajax.html'
p132
sI414
S'        self.menu = []             # used by the default view layout'
p133
sI415
S'        self.files = []            # used by web2py_ajax.html'
p134
ssg100
S'(f=<function takeOrder>)'
p135
sg102
S'<lambda>'
p136
sa(dp137
g79
S'C:\\Users\\sunlifeng\\Downloads\\web2py\\applications\\estore\\controllers\\angularjs.py'
p138
sg81
(dp139
S'global request'
p140
S"<Storage {'_vars': None, 'function': 'takeOrder'...eng\\\\Downloads\\\\web2py\\\\applications\\\\estore\\\\'}>"
p141
sS'gluon.contrib.simplejson'
p142
S"<module 'gluon.contrib.simplejson' from 'C:\\User...ads\\web2py\\gluon\\contrib\\simplejson\\__init__.py'>"
p143
sS'gluon.contrib'
p144
S"<module 'gluon.contrib' from 'C:\\Users\\sunlifeng\\Downloads\\web2py\\gluon\\contrib\\__init__.py'>"
p145
sS'request.body.read'
p146
S'<built-in method read of file object>'
p147
sS'request.body'
p148
S"<open file '<fdopen>', mode 'w+b'>"
p149
sS'new_recipe'
p150
g122
sS'global gluon'
p151
S"<module 'gluon' from 'C:\\Users\\sunlifeng\\Downloads\\web2py\\gluon\\__init__.py'>"
p152
sS'gluon.contrib.simplejson.loads'
p153
S'<function loads>'
p154
ssg87
I9
sg88
(dp155
I4
S''
sI5
S'def index():'
p156
sI6
S'    return dict(message="hello from angular")'
p157
sI7
S''
sI8
S'def takeOrder():'
p158
sI9
S'    new_recipe = gluon.contrib.simplejson.loads(request.body.read())'
p159
sI10
S''
sI11
S'    return new_recipe'
p160
sI12
S''
sI13
S'def menu():'
p161
ssg100
S'()'
p162
sg102
S'takeOrder'
p163
sa(dp164
g79
S'C:\\Users\\sunlifeng\\Downloads\\web2py\\gluon\\contrib\\simplejson\\__init__.py'
p165
sg81
(dp166
S's'
S"'cart=%5B%7B%22image%22%3A%22product.image.86c36d...%22%2C%22amount%22%3A1%2C%22userType%22%3A0%7D%5D'"
p167
sS'global _default_decoder'
p168
S'<gluon.contrib.simplejson.decoder.JSONDecoder object>'
p169
sS'_default_decoder.decode'
p170
S'<bound method JSONDecoder.decode of <gluon.contrib.simplejson.decoder.JSONDecoder object>>'
p171
ssg87
I386
sg88
(dp172
I384
S'            parse_constant is None and object_pairs_hook is None'
p173
sI385
S'            and not use_decimal and not kw):'
p174
sI386
S'        return _default_decoder.decode(s)'
p175
sI387
S'    if cls is None:'
p176
sI388
S'        cls = JSONDecoder'
p177
sI389
S'    if object_hook is not None:'
p178
sI390
S"        kw['object_hook'] = object_hook"
p179
sI381
S'    """'
p180
sI382
S'    if (cls is None and encoding is None and object_hook is None and'
p181
sI383
S'            parse_int is None and parse_float is None and'
p182
ssg100
S"(s='cart=%5B%7B%22image%22%3A%22product.image.86c36d...%22%2C%22amount%22%3A1%2C%22userType%22%3A0%7D%5D', encoding=None, cls=None, object_hook=None, parse_float=None, parse_int=None, parse_constant=None, object_pairs_hook=None, use_decimal=False, **kw={})"
p183
sg102
S'loads'
p184
sa(dp185
g79
S'C:\\Users\\sunlifeng\\Downloads\\web2py\\gluon\\contrib\\simplejson\\decoder.py'
p186
sg81
(dp187
S').end'
p188
g122
sS'end'
p189
g122
sS'idx'
p190
g122
sS'_w'
p191
S'<built-in method match of _sre.SRE_Pattern object>'
p192
sS'self'
p193
S'<gluon.contrib.simplejson.decoder.JSONDecoder object>'
p194
sS's'
S"'cart=%5B%7B%22image%22%3A%22product.image.86c36d...%22%2C%22amount%22%3A1%2C%22userType%22%3A0%7D%5D'"
p195
sS'self.raw_decode'
p196
S'<bound method JSONDecoder.raw_decode of <gluon.contrib.simplejson.decoder.JSONDecoder object>>'
p197
sS'obj'
p198
g122
ssg87
I403
sg88
(dp199
I398
S'    def decode(self, s, _w=WHITESPACE.match):'
p200
sI399
S'        """Return the Python representation of ``s`` (a ``str`` or ``unicode``'
p201
sI400
S'        instance containing a JSON document)'
p202
sI401
S''
sI402
S'        """'
p203
sI403
S'        obj, end = self.raw_decode(s, idx=_w(s, 0).end())'
p204
sI404
S'        end = _w(s, end).end()'
p205
sI405
S'        if end != len(s):'
p206
sI406
S'            raise JSONDecodeError("Extra data", s, end, len(s))'
p207
sI407
S'        return obj'
p208
ssg100
S"(self=<gluon.contrib.simplejson.decoder.JSONDecoder object>, s='cart=%5B%7B%22image%22%3A%22product.image.86c36d...%22%2C%22amount%22%3A1%2C%22userType%22%3A0%7D%5D', _w=<built-in method match of _sre.SRE_Pattern object>)"
p209
sg102
S'decode'
p210
sa(dp211
g79
S'C:\\Users\\sunlifeng\\Downloads\\web2py\\gluon\\contrib\\simplejson\\decoder.py'
p212
sg81
(dp213
S's'
S"'cart=%5B%7B%22image%22%3A%22product.image.86c36d...%22%2C%22amount%22%3A1%2C%22userType%22%3A0%7D%5D'"
p214
sS'global JSONDecodeError'
p215
S"<class 'gluon.contrib.simplejson.decoder.JSONDecodeError'>"
p216
sS'idx'
p217
S'0'
ssg87
I421
sg88
(dp218
I416
S''
sI417
S'        """'
p219
sI418
S'        try:'
p220
sI419
S'            obj, end = self.scan_once(s, idx)'
p221
sI420
S'        except StopIteration:'
p222
sI421
S'            raise JSONDecodeError("No JSON object could be decoded", s, idx)'
p223
sI422
S'        return obj, end'
p224
sI423
S''
sI414
S'        This can be used to decode a JSON document from a string that may'
p225
sI415
S'        have extraneous data at the end.'
p226
ssg100
S"(self=<gluon.contrib.simplejson.decoder.JSONDecoder object>, s='cart=%5B%7B%22image%22%3A%22product.image.86c36d...%22%2C%22amount%22%3A1%2C%22userType%22%3A0%7D%5D', idx=0)"
p227
sg102
S'raw_decode'
p228
sasS'pyver'
p229
S'Python 2.7.9: C:\\Users\\sunlifeng\\Downloads\\web2py\\web2py.exe (prefix: )'
p230
sS'session'
p231
g74
(S's\xa6\x00\x00\x00<div><table><tr><td style="font-weight:bold;vertical-align:top;">cart</td><td style="vertical-align:top;">:</td><td><div><table></table></div></td></tr></table></div>'
tRp232
sS'etype'
p233
S"<class 'gluon.contrib.simplejson.decoder.JSONDecodeError'>"
p234
sS'date'
p235
S'Fri May 12 21:42:44 2017'
p236
sS'response'
p237
g74
(S's\x1d$\x00\x00<div><table><tr><td style="font-weight:bold;vertical-align:top;">body</td><td style="vertical-align:top;">:</td><td><div>&lt;cStringIO.StringO object at 0x0CFE0480&gt;</div></td></tr><tr><td style="font-weight:bold;vertical-align:top;">cookies</td><td style="vertical-align:top;">:</td><td><div><table><tr><td style="font-weight:bold;vertical-align:top;">session_id_estore</td><td style="vertical-align:top;">:</td><td><div>127.0.0.1-89d7b03b-6a14-47ed-8468-595ad2526627<table><tr><td style="font-weight:bold;vertical-align:top;">comment</td><td style="vertical-align:top;">:</td><td><div></div></td></tr><tr><td style="font-weight:bold;vertical-align:top;">domain</td><td style="vertical-align:top;">:</td><td><div></div></td></tr><tr><td style="font-weight:bold;vertical-align:top;">expires</td><td style="vertical-align:top;">:</td><td><div></div></td></tr><tr><td style="font-weight:bold;vertical-align:top;">httponly</td><td style="vertical-align:top;">:</td><td><div></div></td></tr><tr><td style="font-weight:bold;vertical-align:top;">max-age</td><td style="vertical-align:top;">:</td><td><div></div></td></tr><tr><td style="font-weight:bold;vertical-align:top;">path</td><td style="vertical-align:top;">:</td><td><div>/</div></td></tr><tr><td style="font-weight:bold;vertical-align:top;">secure</td><td style="vertical-align:top;">:</td><td><div></div></td></tr><tr><td style="font-weight:bold;vertical-align:top;">version</td><td style="vertical-align:top;">:</td><td><div></div></td></tr></table></div></td></tr></table></div></td></tr><tr><td style="font-weight:bold;vertical-align:top;">delimiters</td><td style="vertical-align:top;">:</td><td><div><table><tr><td><div>{{</div></td></tr><tr><td><div>}}</div></td></tr></table></div></td></tr><tr><td style="font-weight:bold;vertical-align:top;">files</td><td style="vertical-align:top;">:</td><td><div><table></table></div></td></tr><tr><td style="font-weight:bold;vertical-align:top;">flash</td><td style="vertical-align:top;">:</td><td><div></div></td></tr><tr><td style="font-weight:bold;vertical-align:top;">form_label_separator</td><td style="vertical-align:top;">:</td><td><div>: </div></td></tr><tr><td style="font-weight:bold;vertical-align:top;">formstyle</td><td style="vertical-align:top;">:</td><td><div>table3cols</div></td></tr><tr><td style="font-weight:bold;vertical-align:top;">generic_patterns</td><td style="vertical-align:top;">:</td><td><div><table><tr><td><div>*</div></td></tr></table></div></td></tr><tr><td style="font-weight:bold;vertical-align:top;">google_analytics_id</td><td style="vertical-align:top;">:</td><td><div>None</div></td></tr><tr><td style="font-weight:bold;vertical-align:top;">headers</td><td style="vertical-align:top;">:</td><td><div><table><tr><td style="font-weight:bold;vertical-align:top;">X-Powered-By</td><td style="vertical-align:top;">:</td><td><div>web2py</div></td></tr></table></div></td></tr><tr><td style="font-weight:bold;vertical-align:top;">logo</td><td style="vertical-align:top;">:</td><td><div><a class="brand" href="http://www.laopaobar.com/"><b>\xe8\x80\x81\xe7\x82\xae\xe5\x90\xa7</b>&trade;&nbsp;</a></div></td></tr><tr><td style="font-weight:bold;vertical-align:top;">menu</td><td style="vertical-align:top;">:</td><td><div><table><tr><td><div><table><tr><td><div>\xe9\xa3\x9f\xe7\x89\xa9</div></td></tr><tr><td><div>False</div></td></tr><tr><td><div>/estore/default/showroom/%E9%A3%9F%E7%89%A9</div></td></tr><tr><td><div><table></table></div></td></tr></table></div></td></tr><tr><td><div><table><tr><td><div>\xe9\xa5\xae\xe5\x93\x81</div></td></tr><tr><td><div>False</div></td></tr><tr><td><div>/estore/default/showroom/%E9%A5%AE%E5%93%81</div></td></tr><tr><td><div><table><tr><td><div><table><tr><td><div>\xe5\x92\x96\xe5\x95\xa1</div></td></tr><tr><td><div>False</div></td></tr><tr><td><div>/estore/default/showroom/%E9%A5%AE%E5%93%81/%E5%92%96%E5%95%A1</div></td></tr><tr><td><div>[]</div></td></tr></table></div></td></tr><tr><td><div><table><tr><td><div>\xe7\xba\xa2\xe9\x85\x92</div></td></tr><tr><td><div>False</div></td></tr><tr><td><div>/estore/default/showroom/%E9%A5%AE%E5%93%81/%E7%BA%A2%E9%85%92</div></td></tr><tr><td><div>[]</div></td></tr></table></div></td></tr></table></div></td></tr></table></div></td></tr></table></div></td></tr><tr><td style="font-weight:bold;vertical-align:top;">meta</td><td style="vertical-align:top;">:</td><td><div><table><tr><td style="font-weight:bold;vertical-align:top;">author</td><td style="vertical-align:top;">:</td><td><div>\xe8\x80\x81\xe7\x82\xae\xe5\x90\xa7&lt;you@laopaobar.com&gt;</div></td></tr><tr><td style="font-weight:bold;vertical-align:top;">description</td><td style="vertical-align:top;">:</td><td><div>laopao bar</div></td></tr><tr><td style="font-weight:bold;vertical-align:top;">generator</td><td style="vertical-align:top;">:</td><td><div>laopao bar company</div></td></tr><tr><td style="font-weight:bold;vertical-align:top;">keywords</td><td style="vertical-align:top;">:</td><td><div>laopao, bar, drink</div></td></tr></table></div></td></tr><tr><td style="font-weight:bold;vertical-align:top;">models_to_run</td><td style="vertical-align:top;">:</td><td><div><table><tr><td><div>^\\w+\\.py$</div></td></tr><tr><td><div>^angularjs/\\w+\\.py$</div></td></tr><tr><td><div>^angularjs/takeOrder/\\w+\\.py$</div></td></tr></table></div></td></tr><tr><td style="font-weight:bold;vertical-align:top;">postprocessing</td><td style="vertical-align:top;">:</td><td><div><table></table></div></td></tr><tr><td style="font-weight:bold;vertical-align:top;">recip</td><td style="vertical-align:top;">:</td><td><div><table><tr><td><div><table><tr><td><div>\xe9\xa3\x9f\xe7\x89\xa9</div></td></tr><tr><td><div>False</div></td></tr><tr><td><div>/estore/default/showroom/%E9%A3%9F%E7%89%A9</div></td></tr><tr><td><div><table></table></div></td></tr></table></div></td></tr><tr><td><div><table><tr><td><div>\xe9\xa5\xae\xe5\x93\x81</div></td></tr><tr><td><div>False</div></td></tr><tr><td><div>/estore/default/showroom/%E9%A5%AE%E5%93%81</div></td></tr><tr><td><div><table><tr><td><div><table><tr><td><div>\xe5\x92\x96\xe5\x95\xa1</div></td></tr><tr><td><div>False</div></td></tr><tr><td><div>/estore/default/showroom/%E9%A5%AE%E5%93%81/%E5%92%96%E5%95%A1</div></td></tr><tr><td><div>[]</div></td></tr></table></div></td></tr><tr><td><div><table><tr><td><div>\xe7\xba\xa2\xe9\x85\x92</div></td></tr><tr><td><div>False</div></td></tr><tr><td><div>/estore/default/showroom/%E9%A5%AE%E5%93%81/%E7%BA%A2%E9%85%92</div></td></tr><tr><td><div>[]</div></td></tr></table></div></td></tr></table></div></td></tr></table></div></td></tr></table></div></td></tr><tr><td style="font-weight:bold;vertical-align:top;">session_client</td><td style="vertical-align:top;">:</td><td><div>127.0.0.1</div></td></tr><tr><td style="font-weight:bold;vertical-align:top;">session_cookie_compression_level</td><td style="vertical-align:top;">:</td><td><div>None</div></td></tr><tr><td style="font-weight:bold;vertical-align:top;">session_cookie_expires</td><td style="vertical-align:top;">:</td><td><div>None</div></td></tr><tr><td style="font-weight:bold;vertical-align:top;">session_data_name</td><td style="vertical-align:top;">:</td><td><div>session_data_estore</div></td></tr><tr><td style="font-weight:bold;vertical-align:top;">session_file</td><td style="vertical-align:top;">:</td><td><div>&lt;open file &#x27;C:\\\\Users\\\\sunlifeng\\\\Downloads\\\\web2py\\\\applications\\\\estore\\\\sessions\\\\05f\\\\1bf\\\\127.0.0.1-89d7b03b-6a14-47ed-8468-595ad2526627&#x27;, mode &#x27;rb+&#x27; at 0x08437C28&gt;</div></td></tr><tr><td style="font-weight:bold;vertical-align:top;">session_filename</td><td style="vertical-align:top;">:</td><td><div>C:\\Users\\sunlifeng\\Downloads\\web2py\\applications\\estore\\sessions\\127.0.0.1-89d7b03b-6a14-47ed-8468-595ad2526627</div></td></tr><tr><td style="font-weight:bold;vertical-align:top;">session_hash</td><td style="vertical-align:top;">:</td><td><div>006826dc4d16bf3d9b02c9791ac8cecf</div></td></tr><tr><td style="font-weight:bold;vertical-align:top;">session_id</td><td style="vertical-align:top;">:</td><td><div>127.0.0.1-89d7b03b-6a14-47ed-8468-595ad2526627</div></td></tr><tr><td style="font-weight:bold;vertical-align:top;">session_id_name</td><td style="vertical-align:top;">:</td><td><div>session_id_estore</div></td></tr><tr><td style="font-weight:bold;vertical-align:top;">session_locked</td><td style="vertical-align:top;">:</td><td><div>True</div></td></tr><tr><td style="font-weight:bold;vertical-align:top;">session_masterapp</td><td style="vertical-align:top;">:</td><td><div>estore</div></td></tr><tr><td style="font-weight:bold;vertical-align:top;">session_new</td><td style="vertical-align:top;">:</td><td><div>False</div></td></tr><tr><td style="font-weight:bold;vertical-align:top;">session_storage_type</td><td style="vertical-align:top;">:</td><td><div>file</div></td></tr><tr><td style="font-weight:bold;vertical-align:top;">status</td><td style="vertical-align:top;">:</td><td><div>200</div></td></tr><tr><td style="font-weight:bold;vertical-align:top;">subtitle</td><td style="vertical-align:top;">:</td><td><div>\xe8\x80\x81\xe7\x82\xae\xe5\x90\xa7</div></td></tr><tr><td style="font-weight:bold;vertical-align:top;">title</td><td style="vertical-align:top;">:</td><td><div>\xe8\x80\x81\xe7\x82\xae\xe5\x90\xa7</div></td></tr><tr><td style="font-weight:bold;vertical-align:top;">view</td><td style="vertical-align:top;">:</td><td><div>angularjs/takeOrder.json</div></td></tr></table></div>'
tRp238
sS'locals'
p239
(dp240
S's'
S"'cart=%5B%7B%22image%22%3A%22product.image.86c36d...%22%2C%22amount%22%3A1%2C%22userType%22%3A0%7D%5D'"
p241
sS'self'
p242
S'<gluon.contrib.simplejson.decoder.JSONDecoder object>'
p243
sS'idx'
p244
S'0'
sssS'traceback'
p245
S'Traceback (most recent call last):\n  File "C:\\Users\\sunlifeng\\Downloads\\web2py\\gluon\\restricted.py", line 227, in restricted\n    exec ccode in environment\n  File "C:\\Users\\sunlifeng\\Downloads\\web2py\\applications\\estore\\controllers/angularjs.py", line 40, in <module>\n  File "C:\\Users\\sunlifeng\\Downloads\\web2py\\gluon\\globals.py", line 417, in <lambda>\n    self._caller = lambda f: f()\n  File "C:\\Users\\sunlifeng\\Downloads\\web2py\\applications\\estore\\controllers/angularjs.py", line 9, in takeOrder\n    new_recipe = gluon.contrib.simplejson.loads(request.body.read())\n  File "C:\\Users\\sunlifeng\\Downloads\\web2py\\gluon\\contrib\\simplejson\\__init__.py", line 386, in loads\n    return _default_decoder.decode(s)\n  File "C:\\Users\\sunlifeng\\Downloads\\web2py\\gluon\\contrib\\simplejson\\decoder.py", line 403, in decode\n    obj, end = self.raw_decode(s, idx=_w(s, 0).end())\n  File "C:\\Users\\sunlifeng\\Downloads\\web2py\\gluon\\contrib\\simplejson\\decoder.py", line 421, in raw_decode\n    raise JSONDecodeError("No JSON object could be decoded", s, idx)\nJSONDecodeError: No JSON object could be decoded: line 1 column 0 (char 0)\n'
p246
s.