(dp1
S'output'
p2
S'Unable to open included view file: H:\\web2py_win\\web2py\\applications\\laopao\\views\\<menu class="load"></menu>'
p3
sS'layer'
p4
S"'layout_starter.html'"
p5
sS'code'
p6
S'{{is_mobile=request.user_agent().is_mobile}}\r\n<!DOCTYPE html>\r\n<html>\r\n<head>\r\n  <meta charset="utf-8">\r\n  <meta http-equiv="X-UA-Compatible" content="IE=edge">\r\n\r\n  <title>{{=response.title or request.application}}</title>\r\n\r\n  <!-- Tell the browser to be responsive to screen width -->\r\n  <meta content="width=device-width, initial-scale=1, maximum-scale=1, user-scalable=no" name="viewport">\r\n\r\n  <link rel="shortcut icon" href="{{=URL(\'static\',\'images/favicon.ico\')}}" type="image/x-icon">\r\n  <link rel="apple-touch-icon" href="{{=URL(\'static\',\'images/favicon.png\')}}">\r\n\r\n  <!-- Bootstrap 3.3.5 -->\r\n  <link rel="stylesheet" href="{{=URL(\'static\',\'plugins/bootstrap/css/bootstrap.min.css\')}}">\r\n  <!-- Font Awesome -->\r\n  <link rel="stylesheet" href="https://maxcdn.bootstrapcdn.com/font-awesome/4.4.0/css/font-awesome.min.css">\r\n  <!-- Ionicons -->\r\n  <link rel="stylesheet" href="https://code.ionicframework.com/ionicons/2.0.1/css/ionicons.min.css">\r\n  <!-- Theme style -->\r\n  <link rel="stylesheet" href="{{=URL(\'static\',\'css/AdminLTE.min.css\')}}">\r\n  <!-- AdminLTE Skins. We have chosen the skin-blue for this starter\r\n        page. However, you can choose any other skin. Make sure you\r\n        apply the skin class to the body tag so the changes take effect.\r\n  -->\r\n  <link rel="stylesheet" href="{{=URL(\'static\',\'css/skins/skin-blue.min.css\')}}">\r\n\r\n  <!-- HTML5 Shim and Respond.js IE8 support of HTML5 elements and media queries -->\r\n  <!-- WARNING: Respond.js doesn\'t work if you view the page via file:// -->\r\n  <!--[if lt IE 9]>\r\n  <script src="https://oss.maxcdn.com/html5shiv/3.7.3/html5shiv.min.js"></script>\r\n  <script src="https://oss.maxcdn.com/respond/1.4.2/respond.min.js"></script>\r\n  <![endif]-->\r\n\r\n  <!-- REQUIRED JS SCRIPTS -->\r\n\r\n  <!-- jQuery 2.1.4 -->\r\n  <script src="{{=URL(\'static\',\'plugins/jQuery/jQuery-2.1.4.min.js\')}}"></script>\r\n  <!-- Bootstrap 3.3.5 -->\r\n  <script src="{{=URL(\'static\',\'plugins/bootstrap/js/bootstrap.min.js\')}}"></script>\r\n  <!-- AdminLTE App -->\r\n  <script src="{{=URL(\'static\',\'js/app.min.js\')}}"></script>\r\n\r\n  <link rel="stylesheet" href="{{=URL(\'static\',\'css/web2py.css\')}}">\r\n  <link rel="stylesheet" href="{{=URL(\'static\',\'css/web2py-bootstrap3.css\')}}">\r\n  <link rel="stylesheet" href="{{=URL(\'static\',\'css/starter.css\')}}">\r\n\r\n  {{include \'web2py_ajax_stater.html\'}} <!-- this includes jquery.js, calendar.js/.css and web2py.js -->\r\n\r\n  {{\r\n  # using sidebars need to know what sidebar you want to use\r\n  mc0 = \'col-md-12\'\r\n  mc1 = \'col-md-9\'\r\n  mc2 = \'col-md-6\'\r\n  left_sidebar_enabled = globals().get(\'left_sidebar_enabled\', False)\r\n  right_sidebar_enabled = globals().get(\'right_sidebar_enabled\', False)\r\n  middle_column = {0: mc0, 1: mc1, 2: mc2}[\r\n  (left_sidebar_enabled and 1 or 0)+(right_sidebar_enabled and 1 or 0)]\r\n  }}\r\n\r\n</head>\r\n<!--\r\nBODY TAG OPTIONS:\r\n=================\r\nApply one or more of the following classes to get the\r\ndesired effect\r\n|---------------------------------------------------------|\r\n| SKINS         | skin-blue                               |\r\n|               | skin-black                              |\r\n|               | skin-purple                             |\r\n|               | skin-yellow                             |\r\n|               | skin-red                                |\r\n|               | skin-green                              |\r\n|---------------------------------------------------------|\r\n|LAYOUT OPTIONS | fixed                                   |\r\n|               | layout-boxed                            |\r\n|               | layout-top-nav                          |\r\n|               | sidebar-collapse                        |\r\n|               | sidebar-mini                            |\r\n|---------------------------------------------------------|\r\n-->\r\n<body class="hold-transition skin-blue sidebar-mini">\r\n\r\n{{hidden = None if auth.user else \'hidden\'}}\r\n\r\n<div class="wrapper">\r\n\r\n  <!-- Main Header -->\r\n  <header class="main-header">\r\n\r\n    <!-- Logo -->\r\n    <a href="{{=URL(\'default\',\'index\')}}" class="logo">\r\n      <!-- mini logo for sidebar mini 50x50 pixels -->\r\n      <span class="logo-mini">\xe8\x80\x81\xe7\x82\xae\xe5\x90\xa7</span>\r\n      <!-- logo for regular state and mobile devices -->\r\n      <span class="logo-lg"><b>\xe8\x80\x81\xe7\x82\xae</b>\xe5\x90\xa7</span>\r\n    </a>\r\n\r\n    <!-- Header Navbar -->\r\n    <nav class="navbar navbar-static-top" role="navigation">\r\n      <!-- Sidebar toggle button-->\r\n      <a href="#" class="sidebar-toggle" data-toggle="offcanvas" role="button">\r\n        <span class="sr-only">Toggle navigation</span>\r\n      </a>\r\n      <!-- Navbar Right Menu -->\r\n      <div class="navbar-custom-menu">\r\n        <ul class="nav navbar-nav">\r\n\r\n          {{if auth.user:}}\r\n            {{=LOAD(\'message\', \'menu.load\', ajax=True, content=\'\')}}\r\n          {{pass}}\r\n\r\n          <!-- Notifications Menu -->\r\n          <li class="dropdown notifications-menu {{=hidden}}">\r\n            <!-- Menu toggle button -->\r\n            <a href="#" class="dropdown-toggle" data-toggle="dropdown">\r\n              <i class="fa fa-bell-o"></i>\r\n              <span class="label label-warning">10</span>\r\n            </a>\r\n            <ul class="dropdown-menu">\r\n              <li class="header">You have 10 notifications</li>\r\n              <li>\r\n                <!-- Inner Menu: contains the notifications -->\r\n                <ul class="menu">\r\n                  <li><!-- start notification -->\r\n                    <a href="#">\r\n                      <i class="fa fa-users text-aqua"></i> 5 new members joined today\r\n                    </a>\r\n                  </li>\r\n                  <!-- end notification -->\r\n                </ul>\r\n              </li>\r\n              <li class="footer"><a href="#">View all</a></li>\r\n            </ul>\r\n          </li>\r\n\r\n          <!-- Tasks Menu -->\r\n          <li class="dropdown tasks-menu {{=hidden}}">\r\n            <!-- Menu Toggle Button -->\r\n            <a href="#" class="dropdown-toggle" data-toggle="dropdown">\r\n              <i class="fa fa-flag-o"></i>\r\n              <span class="label label-danger">9</span>\r\n            </a>\r\n            <ul class="dropdown-menu">\r\n              <li class="header">You have 9 tasks</li>\r\n              <li>\r\n                <!-- Inner menu: contains the tasks -->\r\n                <ul class="menu">\r\n                  <li><!-- Task item -->\r\n                    <a href="#">\r\n                      <!-- Task title and progress text -->\r\n                      <h3>\r\n                        Design some buttons\r\n                        <small class="pull-right">20%</small>\r\n                      </h3>\r\n                      <!-- The progress bar -->\r\n                      <div class="progress xs">\r\n                        <!-- Change the css width attribute to simulate progress -->\r\n                        <div class="progress-bar progress-bar-aqua" style="width: 20%" role="progressbar" aria-valuenow="20" aria-valuemin="0" aria-valuemax="100">\r\n                          <span class="sr-only">20% Complete</span>\r\n                        </div>\r\n                      </div>\r\n                    </a>\r\n                  </li>\r\n                  <!-- end task item -->\r\n                </ul>\r\n              </li>\r\n              <li class="footer">\r\n                <a href="#">View all tasks</a>\r\n              </li>\r\n            </ul>\r\n          </li> <!-- /Tasks Menu -->\r\n\r\n          <!-- User Account Menu -->\r\n          {{if auth.user:}}\r\n          <li class="dropdown user user-menu {{=hidden}}">\r\n            <!-- Menu Toggle Button -->\r\n            <a href="#" class="dropdown-toggle" data-toggle="dropdown">\r\n              <!-- The user image in the navbar-->\r\n              <img src="{{=URL(\'static\',\'img/user2-160x160.jpg\')}}" class="user-image" alt="User Image">\r\n              <!-- hidden-xs hides the username on small devices so only the image appears. -->\r\n              <span class="hidden-xs">{{=auth.user.first_name}} {{=auth.user.last_name}} <span class="caret"></span>\r\n            </a>\r\n            <ul class="dropdown-menu">\r\n              <!-- The user image in the menu -->\r\n              <li class="user-header">\r\n                <img src="{{=URL(\'static\',\'img/user2-160x160.jpg\')}}" class="img-circle" alt="User Image">\r\n                <p>\r\n                  {{=auth.user.first_name}} {{=auth.user.last_name}}\r\n                  <small>{{=auth.user_groups}}, Member since Nov. 2012</small>\r\n                </p>\r\n              </li>\r\n              <!-- Menu Body -->\r\n              <li class="user-body">\r\n                <div class="row">\r\n                  <div class="col-xs-4 text-center">\r\n                    <a href="{{=URL(\'default\', \'user\', args=[\'profile\'], vars={\'_next\': URL()})}}"><i class="fa fa-user"></i><br>Profile</a>\r\n                  </div>\r\n                  <div class="col-xs-4 text-center">\r\n                    <a href="{{=URL(\'default\', \'user\', args=[\'change_password\'], vars={\'_next\': URL()})}}"><i class="fa fa-key"></i><br>Password</a>\r\n                  </div>\r\n                  <div class="col-xs-4 text-center">\r\n                    <a href="{{=URL(\'default\', \'user\', args=[\'logout\'], vars={\'_next\': URL()})}}"><i class="fa fa-sign-out"></i><br>Log&nbsp;Out</a>\r\n                  </div>\r\n                </div>\r\n                <!-- /.row -->\r\n              </li>\r\n              <!-- Menu Footer-->\r\n              <li class="user-footer hidden">\r\n                <div class="pull-left">\r\n                  <a href="{{=URL(\'default\', \'user\', args=[\'profile\'], vars={\'_next\': URL()})}}" class="btn btn-default btn-flat">Profile</a>\r\n                </div>\r\n                <div class="">\r\n                  <a href="{{=URL(\'default\', \'user\', args=[\'change_password\'], vars={\'_next\': URL()})}}" class="btn btn-default btn-flat">Password</a>\r\n                </div>\r\n                <div class="pull-right">\r\n                  <a href="{{=URL(\'default\', \'user\', args=[\'logout\'], vars={\'_next\': URL()})}}" class="btn btn-default btn-flat">Sign out</a>\r\n                </div>\r\n              </li>\r\n            </ul>\r\n          </li> <!-- /User Account Menu -->\r\n          {{else:}}\r\n          <!-- Log In Menu -->\r\n          <li class="dropdown">\r\n            <a href="#" class="dropdown-toggle" data-toggle="dropdown">Log In <span class="caret"></span></a>\r\n            <ul class="dropdown-menu" role="menu">\r\n              <li><a href="{{=URL(\'default\', \'user\', args=[\'register\'], vars={\'_next\': URL()})}}"><i class="fa fa-pencil-square-o"></i> Sign Up</a></li>\r\n              <li><a href="{{=URL(\'default\', \'user\', args=[\'request_reset_password\'], vars={\'_next\': URL()})}}"><i class="fa fa-question"></i> Forgot Password?</a></li>\r\n              <li><a href="{{=URL(\'default\', \'user\', args=[\'retrieve_username\'], vars={\'_next\': URL()})}}"><i class="fa fa-question"></i> Forgot Username?</a></li>\r\n              <li class="divider"></li>\r\n              <li><a href="{{=URL(\'default\', \'user\', args=[\'login\'], vars={\'_next\': URL()})}}"><i class="fa fa-sign-in"></i> Log In</a></li>\r\n            </ul>\r\n          </li> <!-- /Log In Menu -->\r\n          {{pass}}\r\n\r\n          {{# \'auth\' in globals() and auth.navbar(\'Welcome\',mode=\'dropdown\') or \'\'}}\r\n\r\n          <!-- Control Sidebar Toggle Button -->\r\n          <li class="{{=hidden}}">\r\n            <a href="#" data-toggle="control-sidebar"><i class="fa fa-gears"></i></a>\r\n          </li>\r\n        </ul>\r\n      </div>\r\n    </nav>\r\n  </header>\r\n  <!-- Left side column. contains the logo and sidebar -->\r\n  <aside class="main-sidebar">\r\n\r\n    <!-- sidebar: style can be found in sidebar.less -->\r\n    <section class="sidebar">\r\n\r\n      <!-- Sidebar user panel (optional) -->\r\n      <div class="user-panel {{=hidden}}">\r\n        <div class="pull-left image">\r\n          <img src="{{=URL(\'static\',\'img/avatar5.png\')}}" class="img-circle" alt="User Image">\r\n        </div>\r\n        <div class="pull-left info">\r\n          <p>\r\n            {{if auth.user:}}\r\n              {{=auth.user.first_name}} {{#=auth.user.last_name}}\r\n            {{pass}}\r\n          </p>\r\n          <!-- Status -->\r\n          <a href="#"><i class="fa fa-circle text-success"></i> Online</a>\r\n        </div>\r\n      </div>\r\n      <!--  /sidebar user panel -->\r\n\r\n      <!-- search form (Optional) -->\r\n      <form action="{{=URL(\'default\', \'search\')}}" method="get" class="sidebar-form {{=hidden}}">\r\n        <div class="input-group">\r\n          <input type="text" name="q" class="form-control" placeholder="Search...">\r\n              <span class="input-group-btn">\r\n                <button type="submit" name="search" id="search-btn" class="btn btn-flat"><i class="fa fa-search"></i>\r\n                </button>\r\n              </span>\r\n        </div>\r\n      </form>\r\n      <!-- /search form -->\r\n\r\n      <!-- Sidebar Menu -->\r\n\r\n      {{#=LOAD(\'message\', \'menu.load\', ajax=True, content=\'\')}}\r\n      {{include \'<menu class="load"></menu>\'}}\r\n      <ul class="sidebar-menu {{=hidden}}">\r\n        <li class="header">CATEGORIES</li>\r\n        <li class="treeview">\r\n          {{=sidebar_menu_item(\'Dogs\', icon=\'circle-o\')}}\r\n          <ul class="treeview-menu">\r\n            {{=sidebar_menu_item(\'View Dogs\', URL(\'dog\', \'list\'), icon=\'list\')}}\r\n            {{=sidebar_menu_item(\'Create Dog\', URL(\'dog\', \'create\'), icon=\'pencil-square-o\')}}\r\n          </ul>\r\n        </li>\r\n        <li class="treeview">\r\n          {{=sidebar_menu_item(\'Dog Lovers\', icon=\'circle-o\')}}\r\n          <ul class="treeview-menu">\r\n            {{=sidebar_menu_item(\'View Dog Lovers\', URL(\'person\', \'list\'), icon=\'list\')}}\r\n            {{=sidebar_menu_item(\'Create Dog Lover\', URL(\'person\', \'create\'), icon=\'pencil-square-o\')}}\r\n          </ul>\r\n        </li>\r\n        <li class="treeview">\r\n          {{=sidebar_menu_item(\'Dog Owner\', icon=\'circle-o\')}}\r\n          <ul class="treeview-menu">\r\n            {{=sidebar_menu_item(\'View Dog Owners\', URL(\'dog_owner\', \'list\'), icon=\'list\')}}\r\n            {{=sidebar_menu_item(\'Create Dog Owner\', URL(\'dog_owner\', \'create\'), icon=\'pencil-square-o\')}}\r\n          </ul>\r\n        </li>\r\n      </ul>\r\n\r\n      <ul class="sidebar-menu">\r\n        <li class="header">\xe8\x80\x81\xe7\x82\xae\xe5\x90\xa7</li>\r\n        {{=sidebar_menu_item(\'\xe5\x85\xb3\xe4\xba\x8e\', URL(\'default\', \'about\'), icon=\'book\')}}\r\n        {{=sidebar_menu_item(\'\xe9\x9a\x90\xe7\xa7\x81\xe6\x9d\x83\', URL(\'default\', \'privacy\'), icon=\'book\')}}\r\n        {{=sidebar_menu_item(\'\xe6\x9c\x8d\xe5\x8a\xa1\xe6\x9d\xa1\xe6\xac\xbe\', URL(\'default\', \'tou\'), icon=\'book\')}}\r\n      </ul>\r\n\r\n      <ul class="sidebar-menu {{=hidden}}">\r\n        <li class="header">ADMIN</li>\r\n        <li class="treeview">\r\n          <a href="#"><i class="fa fa-gears"></i> <span>Admin</span> <i class="fa fa-angle-left pull-right"></i></a>\r\n          <ul class="treeview-menu">\r\n            {{=sidebar_menu_item(\'Manage Users\', URL(\'appadmin\',\'manage/users\'), icon=\'users\')}}\r\n            {{=sidebar_menu_item(\'Manage Auth\', URL(\'appadmin\',\'manage/auth\'), icon=\'wrench\')}}\r\n            {{=sidebar_menu_item(\'Manage Database\', URL(\'appadmin\',\'manage/db\'), icon=\'database\')}}\r\n            {{=sidebar_menu_item(\'Super Admin!\', URL(\'appadmin\',\'#\'), icon=\'cog\')}}\r\n          </ul>\r\n        </li>\r\n      </ul>\r\n      <!-- /Sidebar Menu -->\r\n\r\n    </section>\r\n    <!-- /.sidebar -->\r\n  </aside>\r\n\r\n  <!-- Content Wrapper. Contains page content -->\r\n  <div class="content-wrapper">\r\n    <!-- Content Header (Page header) -->\r\n\r\n    {{if response.flash:}}\r\n    <section class="content-header">\r\n      <div class="alert alert-warning alert-dismissible fade in" role="alert">\r\n        <button type="button" class="close" data-dismiss="alert" aria-label="Close">\r\n          <span aria-hidden="true">\xc3\x97</span>\r\n        </button>\r\n        <strong>Holy guacamole!</strong> {{=response.flash}}\r\n      </div>\r\n    </section>\r\n    {{pass}}\r\n\r\n    {{if response.view_title:}}\r\n    <section class="content-header">\r\n      <h1>\r\n        {{=response.view_title}}\r\n        <small>{{=response.subtitle or \'\'}}</small>\r\n      </h1>\r\n      <ol class="breadcrumb">\r\n        <li><a href="#"><i class="fa fa-dashboard"></i> Level</a></li>\r\n        <li class="active">Here</li>\r\n      </ol>\r\n    </section>\r\n    {{pass}}\r\n\r\n    <!-- Main content -->\r\n    <section class="content">\r\n\r\n      <!-- Your Page Content Here -->\r\n\r\n        {{if left_sidebar_enabled:}}\r\n          <div>\r\n              {{block left_sidebar}}\r\n              {{end}}\r\n          </div>\r\n        {{pass}}\r\n\r\n        <div>\r\n          {{block center}}\r\n            {{include}}\r\n          {{end}}\r\n        </div>\r\n\r\n        {{if right_sidebar_enabled:}}\r\n          <div>\r\n              {{block right_sidebar}}\r\n              {{end}}\r\n          </div>\r\n        {{pass}}\r\n\r\n    </section>\r\n    <!-- /.content -->\r\n  </div>\r\n  <!-- /.content-wrapper -->\r\n\r\n  <!-- Main Footer -->\r\n  <footer class="main-footer">\r\n    <!-- To the right -->\r\n    <div class="pull-right hidden-xs">\r\n      <a href="{{=URL(\'default\', \'changelog\')}}">Version {{=response.version}}</a>\r\n    </div>\r\n    <!-- Default to the left -->\r\n    <strong>\r\n      Copyright &copy;\r\n      <script>document.write(new Date().getFullYear());</script>\r\n      <a href="#">{{=response.company}}</a>.\r\n    </strong> All rights reserved.\r\n  </footer>\r\n\r\n  <!-- Control Sidebar -->\r\n  <aside class="control-sidebar control-sidebar-dark">\r\n    <!-- Create the tabs -->\r\n    <ul class="nav nav-tabs nav-justified control-sidebar-tabs">\r\n      <li><a href="#control-sidebar-home-tab" data-toggle="tab"><i class="fa fa-home"></i></a></li>\r\n      <li class="active"><a href="#control-sidebar-favorites-tab" data-toggle="tab"><i class="fa fa-heart"></i></a></li>\r\n      <li><a href="#control-sidebar-settings-tab" data-toggle="tab"><i class="fa fa-wrench"></i></a></li>\r\n    </ul>\r\n    <!-- Tab panes -->\r\n    <div class="tab-content">\r\n\r\n      <!-- Home tab content -->\r\n      <div class="tab-pane" id="control-sidebar-home-tab">\r\n        <h3 class="control-sidebar-heading">Recent Activity</h3>\r\n        <ul class="control-sidebar-menu">\r\n          <li>\r\n            <a href="javascript::;">\r\n              <i class="menu-icon fa fa-birthday-cake bg-red"></i>\r\n\r\n              <div class="menu-info">\r\n                <h4 class="control-sidebar-subheading">Charlie Brown signed PSA</h4>\r\n\r\n                <p>23 on April 24th</p>\r\n              </div>\r\n            </a>\r\n          </li>\r\n        </ul>\r\n        <!-- /.control-sidebar-menu -->\r\n\r\n        <h3 class="control-sidebar-heading">Tasks Progress</h3>\r\n        <ul class="control-sidebar-menu">\r\n          <li>\r\n            <a href="javascript::;">\r\n              <h4 class="control-sidebar-subheading">\r\n                Loan: Big Miami Property Due Diligence\r\n                <span class="label label-danger pull-right">70%</span>\r\n              </h4>\r\n\r\n              <div class="progress progress-xxs">\r\n                <div class="progress-bar progress-bar-danger" style="width: 70%"></div>\r\n              </div>\r\n            </a>\r\n          </li>\r\n        </ul>\r\n        <!-- /.control-sidebar-menu -->\r\n      </div><!-- /Home tab content -->\r\n      <!-- /.tab-pane -->\r\n\r\n      <!-- Favorites tab content -->\r\n      <div class="tab-pane active" id="control-sidebar-favorites-tab">\r\n        <h3 class="control-sidebar-heading">Favorites</h3>\r\n        <ul class="control-sidebar-menu">\r\n          <li>\r\n\r\n            <a href="javascript::;">\r\n              <i class="menu-icon fa fa-suitcase bg-yellow"></i>\r\n              <div class="menu-info">\r\n                <h4 class="control-sidebar-subheading">blah</h4>\r\n                <p>mini blah</p>\r\n              </div>\r\n            </a>\r\n            <a href="javascript::;">\r\n              <i class="menu-icon fa fa-building bg-red"></i>\r\n              <div class="menu-info">\r\n                <h4 class="control-sidebar-subheading">blah</h4>\r\n                <p>mini blah</p>\r\n              </div>\r\n            </a>\r\n            <a href="javascript::;">\r\n              <i class="menu-icon fa fa-institution bg-green"></i>\r\n              <div class="menu-info">\r\n                <h4 class="control-sidebar-subheading">blah</h4>\r\n                <p>mini blah</p>\r\n              </div>\r\n            </a>\r\n\r\n          </li>\r\n        </ul>\r\n      </div><!-- /Favorites tab content -->\r\n      <!-- /.tab-pane -->\r\n\r\n      <!-- Settings tab content -->\r\n      <div class="tab-pane" id="control-sidebar-settings-tab">\r\n        <form method="post">\r\n          <h3 class="control-sidebar-heading">General Settings</h3>\r\n\r\n          <div class="form-group">\r\n            <label class="control-sidebar-subheading">\r\n              Report panel usage\r\n              <input type="checkbox" class="pull-right" checked>\r\n            </label>\r\n\r\n            <p>\r\n              Some information about this general settings option\r\n            </p>\r\n          </div>\r\n          <!-- /.form-group -->\r\n        </form>\r\n      </div><!-- /Settings tab content -->\r\n      <!-- /.tab-pane -->\r\n\r\n    </div>\r\n  </aside>\r\n  <!-- /.control-sidebar -->\r\n  <!-- Add the sidebar\'s background. This div must be placed\r\n       immediately after the control sidebar -->\r\n  <div class="control-sidebar-bg"></div>\r\n</div><!-- /.wrapper -->\r\n\r\n\r\n{{if request.is_local:}}\r\n  <hr>\r\n  <div class="row">\r\n    <div class="col-md-12" width=100% word-break="break-all">{{=response.toolbar()}}</div>\r\n  </div>\r\n{{pass}}\r\n\r\n<!-- ./wrapper -->\r\n\r\n<!-- REQUIRED JS SCRIPTS *** moved to head *** -->\r\n\r\n<!-- Optionally, you can add Slimscroll and FastClick plugins.\r\n     Both of these plugins are recommended to enhance the\r\n     user experience. Slimscroll is required when using the\r\n     fixed layout. -->\r\n</body>\r\n</html>\r\n'
p7
sS'snapshot'
p8
(dp9
S'exception'
p10
(dp11
S'__getslice__'
p12
S"<method-wrapper '__getslice__' of exceptions.IOError object>"
p13
sS'__str__'
p14
S"<method-wrapper '__str__' of exceptions.IOError object>"
p15
sS'__reduce__'
p16
S'<built-in method __reduce__ of exceptions.IOError object>'
p17
sS'__dict__'
p18
S'{}'
p19
sS'__sizeof__'
p20
S'<built-in method __sizeof__ of exceptions.IOError object>'
p21
sS'__init__'
p22
S"<method-wrapper '__init__' of exceptions.IOError object>"
p23
sS'__setattr__'
p24
S"<method-wrapper '__setattr__' of exceptions.IOError object>"
p25
sS'__reduce_ex__'
p26
S'<built-in method __reduce_ex__ of exceptions.IOError object>'
p27
sS'__new__'
p28
S'<built-in method __new__ of type object>'
p29
sS'errno'
p30
S'22'
p31
sS'__format__'
p32
S'<built-in method __format__ of exceptions.IOError object>'
p33
sS'__class__'
p34
S"<type 'exceptions.IOError'>"
p35
sS'filename'
p36
S'r\'H:\\web2py_win\\web2py\\applications\\laopao\\views\\<menu class="load"></menu>\''
p37
sS'__doc__'
p38
S"'I/O operation failed.'"
p39
sS'__getitem__'
p40
S"<method-wrapper '__getitem__' of exceptions.IOError object>"
p41
sS'__setstate__'
p42
S'<built-in method __setstate__ of exceptions.IOError object>'
p43
sS'__getattribute__'
p44
S"<method-wrapper '__getattribute__' of exceptions.IOError object>"
p45
sS'args'
p46
S'(22, "invalid mode (\'rb\') or filename")'
p47
sS'__subclasshook__'
p48
S'<built-in method __subclasshook__ of type object>'
p49
sS'__unicode__'
p50
S'<built-in method __unicode__ of exceptions.IOError object>'
p51
sS'strerror'
p52
S'"invalid mode (\'rb\') or filename"'
p53
sS'__delattr__'
p54
S"<method-wrapper '__delattr__' of exceptions.IOError object>"
p55
sS'__repr__'
p56
S"<method-wrapper '__repr__' of exceptions.IOError object>"
p57
sS'__hash__'
p58
S"<method-wrapper '__hash__' of exceptions.IOError object>"
p59
ssS'evalue'
p60
S'[Errno 22] invalid mode (\'rb\') or filename: \'H:\\\\web2py_win\\\\web2py\\\\applications\\\\laopao\\\\views\\\\<menu class="load"></menu>\''
p61
sS'frames'
p62
(lp63
(dp64
S'file'
p65
S'H:\\web2py_win\\web2py\\gluon\\template.py'
p66
sS'dump'
p67
(dp68
S'builtinopen'
p69
S'<built-in function open>'
p70
sS'fileobj'
p71
S'undefined'
p72
sS'filepath'
p73
S'r\'H:\\web2py_win\\web2py\\applications\\laopao\\views\\<menu class="load"></menu>\''
p74
ssS'lnum'
p75
I450
sS'lines'
p76
(dp77
I448
S'        # try to read the text.'
p78
sI449
S'        try:'
p79
sI450
S"            fileobj = open(filepath, 'rb')"
p80
sI451
S'            text = fileobj.read()'
p81
sI452
S'            fileobj.close()'
p82
sI453
S'        except IOError:'
p83
sI454
S"            self._raise_error('Unable to open included view file: ' + filepath)"
p84
sI445
S'        # Get the path of the file on the system.'
p85
sI446
S'        filepath = self.path and os.path.join(self.path, filename) or filename'
p86
sI447
S''
ssS'call'
p87
S'(self=<gluon.template.TemplateParser object>, filename=\'<menu class="load"></menu>\')'
p88
sS'func'
p89
S'_get_file_text'
p90
sasS'pyver'
p91
S'Python 2.7.9: H:\\web2py_win\\web2py\\web2py.exe (prefix: E:\\Program\\python)'
p92
sS'etype'
p93
S"<type 'exceptions.IOError'>"
p94
sS'date'
p95
S'Wed May 24 21:37:14 2017'
p96
sS'locals'
p97
(dp98
S'self'
p99
S'<gluon.template.TemplateParser object>'
p100
sS'filepath'
p101
S'r\'H:\\web2py_win\\web2py\\applications\\laopao\\views\\<menu class="load"></menu>\''
p102
sS'context'
p103
S"{'A': <class 'gluon.html.A'>, 'ANY_OF': <class 'gluon.validators.ANY_OF'>, 'ASSIGNJS': <function ASSIGNJS>, 'Auth': <class 'gluon.tools.Auth'>, 'B': <class 'gluon.html.B'>, 'BEAUTIFY': <class 'gluon.html.BEAUTIFY'>, 'BODY': <class 'gluon.html.BODY'>, 'BR': <class 'gluon.html.BR'>, 'BUTTON': <class 'gluon.html.BUTTON'>, 'CAT': <class 'gluon.html.CAT'>, ...}"
p104
sg36
S'\'<menu class="load"></menu>\''
p105
sssS'traceback'
p106
S'Traceback (most recent call last):\n  File "H:\\web2py_win\\web2py\\gluon\\template.py", line 450, in _get_file_text\n    fileobj = open(filepath, \'rb\')\nIOError: [Errno 22] invalid mode (\'rb\') or filename: \'H:\\\\web2py_win\\\\web2py\\\\applications\\\\laopao\\\\views\\\\<menu class="load"></menu>\'\n'
p107
s.